target datalayout = "e-m:e-p270:32:32-p271:32:32-p272:64:64-i64:64-i128:128-f80:128-n8:16:32:64-S128"
target triple = "x86_64-pc-linux-gnu"

%struct.LSEG = type { [2 x %struct.Point] }
%struct.Point = type { double, double }
%struct.FunctionCallInfoBaseData = type { ptr, ptr, ptr, i32, i8, i16, [0 x %struct.NullableDatum] }
%struct.NullableDatum = type { i64, i8 }
%struct.PATH = type { i32, i32, i32, i32, [0 x %struct.Point] }

; Function Attrs: inlinehint nounwind uwtable
define internal i64 @PointerGetDatum(ptr noundef %0) #2 {
  %2 = alloca ptr, align 8
  store ptr %0, ptr %2, align 8
  %3 = load ptr, ptr %2, align 8
  %4 = ptrtoint ptr %3 to i64
  ret i64 %4
}

; Function Attrs: inlinehint nounwind uwtable
define internal ptr @DatumGetPointer(i64 noundef %0) #2 {
  %2 = alloca i64, align 8
  store i64 %0, ptr %2, align 8
  %3 = load i64, ptr %2, align 8
  %4 = inttoptr i64 %3 to ptr
  ret ptr %4
}

; Function Attrs: inlinehint nounwind uwtable
define internal zeroext i1 @DatumGetBool(i64 noundef %0) #2 {
  %2 = alloca i64, align 8
  store i64 %0, ptr %2, align 8
  %3 = load i64, ptr %2, align 8
  %4 = icmp ne i64 %3, 0
  ret i1 %4
}

; Function Attrs: inlinehint nounwind uwtable
define internal i64 @LsegPGetDatum(ptr noundef %0) #2 {
  %2 = alloca ptr, align 8
  store ptr %0, ptr %2, align 8
  %3 = load ptr, ptr %2, align 8
  %4 = call i64 @PointerGetDatum(ptr noundef %3)
  ret i64 %4
}

; Function Attrs: nounwind uwtable
define internal void @regress_lseg_construct(ptr noundef %0, ptr noundef %1, ptr noundef %2) #0 {
  %4 = alloca ptr, align 8
  %5 = alloca ptr, align 8
  %6 = alloca ptr, align 8
  store ptr %0, ptr %4, align 8
  store ptr %1, ptr %5, align 8
  store ptr %2, ptr %6, align 8
  %7 = load ptr, ptr %5, align 8
  %8 = getelementptr inbounds nuw %struct.Point, ptr %7, i32 0, i32 0
  %9 = load double, ptr %8, align 8
  %10 = load ptr, ptr %4, align 8
  %11 = getelementptr inbounds nuw %struct.LSEG, ptr %10, i32 0, i32 0
  %12 = getelementptr inbounds [2 x %struct.Point], ptr %11, i64 0, i64 0
  %13 = getelementptr inbounds nuw %struct.Point, ptr %12, i32 0, i32 0
  store double %9, ptr %13, align 8
  %14 = load ptr, ptr %5, align 8
  %15 = getelementptr inbounds nuw %struct.Point, ptr %14, i32 0, i32 1
  %16 = load double, ptr %15, align 8
  %17 = load ptr, ptr %4, align 8
  %18 = getelementptr inbounds nuw %struct.LSEG, ptr %17, i32 0, i32 0
  %19 = getelementptr inbounds [2 x %struct.Point], ptr %18, i64 0, i64 0
  %20 = getelementptr inbounds nuw %struct.Point, ptr %19, i32 0, i32 1
  store double %16, ptr %20, align 8
  %21 = load ptr, ptr %6, align 8
  %22 = getelementptr inbounds nuw %struct.Point, ptr %21, i32 0, i32 0
  %23 = load double, ptr %22, align 8
  %24 = load ptr, ptr %4, align 8
  %25 = getelementptr inbounds nuw %struct.LSEG, ptr %24, i32 0, i32 0
  %26 = getelementptr inbounds [2 x %struct.Point], ptr %25, i64 0, i64 1
  %27 = getelementptr inbounds nuw %struct.Point, ptr %26, i32 0, i32 0
  store double %23, ptr %27, align 8
  %28 = load ptr, ptr %6, align 8
  %29 = getelementptr inbounds nuw %struct.Point, ptr %28, i32 0, i32 1
  %30 = load double, ptr %29, align 8
  %31 = load ptr, ptr %4, align 8
  %32 = getelementptr inbounds nuw %struct.LSEG, ptr %31, i32 0, i32 0
  %33 = getelementptr inbounds [2 x %struct.Point], ptr %32, i64 0, i64 1
  %34 = getelementptr inbounds nuw %struct.Point, ptr %33, i32 0, i32 1
  store double %30, ptr %34, align 8
  ret void
}

; Function Attrs: inlinehint nounwind uwtable
define internal ptr @DatumGetPathP(i64 noundef %0) #2 {
  %2 = alloca i64, align 8
  store i64 %0, ptr %2, align 8
  %3 = load i64, ptr %2, align 8
  %4 = call ptr @DatumGetPointer(i64 noundef %3)
  %5 = call ptr @pg_detoast_datum(ptr noundef %4)
  ret ptr %5
}

; Function Attrs: nounwind uwtable
define i64 @interpt_pp(ptr noundef %0) #0 {
  %2 = alloca i64, align 8
  %3 = alloca ptr, align 8
  %4 = alloca ptr, align 8
  %5 = alloca ptr, align 8
  %6 = alloca i32, align 4
  %7 = alloca i32, align 4
  %8 = alloca %struct.LSEG, align 8
  %9 = alloca %struct.LSEG, align 8
  %10 = alloca i8, align 1
  %11 = alloca i32, align 4
  store ptr %0, ptr %3, align 8
  call void @llvm.lifetime.start.p0(i64 8, ptr %4) #13
  %12 = load ptr, ptr %3, align 8
  %13 = getelementptr inbounds nuw %struct.FunctionCallInfoBaseData, ptr %12, i32 0, i32 6
  %14 = getelementptr inbounds [0 x %struct.NullableDatum], ptr %13, i64 0, i64 0
  %15 = getelementptr inbounds nuw %struct.NullableDatum, ptr %14, i32 0, i32 0
  %16 = load i64, ptr %15, align 8
  %17 = call ptr @DatumGetPathP(i64 noundef %16)
  store ptr %17, ptr %4, align 8
  call void @llvm.lifetime.start.p0(i64 8, ptr %5) #13
  %18 = load ptr, ptr %3, align 8
  %19 = getelementptr inbounds nuw %struct.FunctionCallInfoBaseData, ptr %18, i32 0, i32 6
  %20 = getelementptr inbounds [0 x %struct.NullableDatum], ptr %19, i64 0, i64 1
  %21 = getelementptr inbounds nuw %struct.NullableDatum, ptr %20, i32 0, i32 0
  %22 = load i64, ptr %21, align 8
  %23 = call ptr @DatumGetPathP(i64 noundef %22)
  store ptr %23, ptr %5, align 8
  call void @llvm.lifetime.start.p0(i64 4, ptr %6) #13
  call void @llvm.lifetime.start.p0(i64 4, ptr %7) #13
  call void @llvm.lifetime.start.p0(i64 32, ptr %8) #13
  call void @llvm.lifetime.start.p0(i64 32, ptr %9) #13
  call void @llvm.lifetime.start.p0(i64 1, ptr %10) #13
  store i8 0, ptr %10, align 1
  store i32 0, ptr %6, align 4
  br label %24

24:                                               ; preds = %84, %1
  %25 = load i32, ptr %6, align 4
  %26 = load ptr, ptr %4, align 8
  %27 = getelementptr inbounds nuw %struct.PATH, ptr %26, i32 0, i32 1
  %28 = load i32, ptr %27, align 4
  %29 = sub i32 %28, 1
  %30 = icmp slt i32 %25, %29
  br i1 %30, label %31, label %35

31:                                               ; preds = %24
  %32 = load i8, ptr %10, align 1, !range !3, !noundef !4
  %33 = trunc i8 %32 to i1
  %34 = xor i1 %33, true
  br label %35

35:                                               ; preds = %31, %24
  %36 = phi i1 [ false, %24 ], [ %34, %31 ]
  br i1 %36, label %37, label %87

37:                                               ; preds = %35
  %38 = load ptr, ptr %4, align 8
  %39 = getelementptr inbounds nuw %struct.PATH, ptr %38, i32 0, i32 4
  %40 = load i32, ptr %6, align 4
  %41 = sext i32 %40 to i64
  %42 = getelementptr inbounds [0 x %struct.Point], ptr %39, i64 0, i64 %41
  %43 = load ptr, ptr %4, align 8
  %44 = getelementptr inbounds nuw %struct.PATH, ptr %43, i32 0, i32 4
  %45 = load i32, ptr %6, align 4
  %46 = add i32 %45, 1
  %47 = sext i32 %46 to i64
  %48 = getelementptr inbounds [0 x %struct.Point], ptr %44, i64 0, i64 %47
  call void @regress_lseg_construct(ptr noundef %8, ptr noundef %42, ptr noundef %48)
  store i32 0, ptr %7, align 4
  br label %49

49:                                               ; preds = %80, %37
  %50 = load i32, ptr %7, align 4
  %51 = load ptr, ptr %5, align 8
  %52 = getelementptr inbounds nuw %struct.PATH, ptr %51, i32 0, i32 1
  %53 = load i32, ptr %52, align 4
  %54 = sub i32 %53, 1
  %55 = icmp slt i32 %50, %54
  br i1 %55, label %56, label %60

56:                                               ; preds = %49
  %57 = load i8, ptr %10, align 1, !range !3, !noundef !4
  %58 = trunc i8 %57 to i1
  %59 = xor i1 %58, true
  br label %60

60:                                               ; preds = %56, %49
  %61 = phi i1 [ false, %49 ], [ %59, %56 ]
  br i1 %61, label %62, label %83

62:                                               ; preds = %60
  %63 = load ptr, ptr %5, align 8
  %64 = getelementptr inbounds nuw %struct.PATH, ptr %63, i32 0, i32 4
  %65 = load i32, ptr %7, align 4
  %66 = sext i32 %65 to i64
  %67 = getelementptr inbounds [0 x %struct.Point], ptr %64, i64 0, i64 %66
  %68 = load ptr, ptr %5, align 8
  %69 = getelementptr inbounds nuw %struct.PATH, ptr %68, i32 0, i32 4
  %70 = load i32, ptr %7, align 4
  %71 = add i32 %70, 1
  %72 = sext i32 %71 to i64
  %73 = getelementptr inbounds [0 x %struct.Point], ptr %69, i64 0, i64 %72
  call void @regress_lseg_construct(ptr noundef %9, ptr noundef %67, ptr noundef %73)
  %74 = call i64 @LsegPGetDatum(ptr noundef %8)
  %75 = call i64 @LsegPGetDatum(ptr noundef %9)
  %76 = call i64 @DirectFunctionCall2Coll(ptr noundef @lseg_intersect, i32 noundef 0, i64 noundef %74, i64 noundef %75)
  %77 = call zeroext i1 @DatumGetBool(i64 noundef %76)
  br i1 %77, label %78, label %79

78:                                               ; preds = %62
  store i8 1, ptr %10, align 1
  br label %79

79:                                               ; preds = %78, %62
  br label %80

80:                                               ; preds = %79
  %81 = load i32, ptr %7, align 4
  %82 = add i32 %81, 1
  store i32 %82, ptr %7, align 4
  br label %49, !llvm.loop !5

83:                                               ; preds = %60
  br label %84

84:                                               ; preds = %83
  %85 = load i32, ptr %6, align 4
  %86 = add i32 %85, 1
  store i32 %86, ptr %6, align 4
  br label %24, !llvm.loop !7

87:                                               ; preds = %35
  %88 = load i8, ptr %10, align 1, !range !3, !noundef !4
  %89 = trunc i8 %88 to i1
  br i1 %89, label %96, label %90

90:                                               ; preds = %87
  br label %91

91:                                               ; preds = %90
  %92 = load ptr, ptr %3, align 8
  %93 = getelementptr inbounds nuw %struct.FunctionCallInfoBaseData, ptr %92, i32 0, i32 4
  store i8 1, ptr %93, align 4
  store i64 0, ptr %2, align 8
  store i32 1, ptr %11, align 4
  br label %100

94:                                               ; No predecessors!
  br label %95

95:                                               ; preds = %94
  br label %96

96:                                               ; preds = %95, %87
  %97 = call i64 @LsegPGetDatum(ptr noundef %8)
  %98 = call i64 @LsegPGetDatum(ptr noundef %9)
  %99 = call i64 @DirectFunctionCall2Coll(ptr noundef @lseg_interpt, i32 noundef 0, i64 noundef %97, i64 noundef %98)
  store i64 %99, ptr %2, align 8
  store i32 1, ptr %11, align 4
  br label %100

100:                                              ; preds = %96, %91
  call void @llvm.lifetime.end.p0(i64 1, ptr %10) #13
  call void @llvm.lifetime.end.p0(i64 32, ptr %9) #13
  call void @llvm.lifetime.end.p0(i64 32, ptr %8) #13
  call void @llvm.lifetime.end.p0(i64 4, ptr %7) #13
  call void @llvm.lifetime.end.p0(i64 4, ptr %6) #13
  call void @llvm.lifetime.end.p0(i64 8, ptr %5) #13
  call void @llvm.lifetime.end.p0(i64 8, ptr %4) #13
  %101 = load i64, ptr %2, align 8
  ret i64 %101
}