; Function Attrs: nounwind uwtable
define i64 @interpt_pp(ptr noundef captures(none) %0) local_unnamed_addr #1 {
  %2 = alloca %struct.LSEG, align 8
  %3 = alloca %struct.LSEG, align 8
  %4 = getelementptr inbounds nuw i8, ptr %0, i64 32
  %5 = load i64, ptr %4, align 8
  %6 = inttoptr i64 %5 to ptr
  %7 = tail call ptr @pg_detoast_datum(ptr noundef %6) #18
  %8 = getelementptr inbounds nuw i8, ptr %0, i64 48
  %9 = load i64, ptr %8, align 8
  %10 = inttoptr i64 %9 to ptr
  %11 = tail call ptr @pg_detoast_datum(ptr noundef %10) #18
  call void @llvm.lifetime.start.p0(i64 32, ptr nonnull %2) #18
  call void @llvm.lifetime.start.p0(i64 32, ptr nonnull %3) #18
  %12 = getelementptr inbounds nuw i8, ptr %7, i64 4
  %13 = load i32, ptr %12, align 4
  %14 = add i32 %13, -1
  %15 = icmp slt i32 %14, 1
  br i1 %15, label %.critedge, label %.lr.ph28

.lr.ph28:                                         ; preds = %1
  %16 = getelementptr inbounds nuw i8, ptr %7, i64 16
  %17 = getelementptr inbounds nuw i8, ptr %2, i64 8
  %18 = getelementptr inbounds nuw i8, ptr %2, i64 16
  %19 = getelementptr inbounds nuw i8, ptr %2, i64 24
  %20 = getelementptr inbounds nuw i8, ptr %11, i64 4
  %21 = getelementptr inbounds nuw i8, ptr %11, i64 16
  %22 = getelementptr inbounds nuw i8, ptr %3, i64 8
  %23 = getelementptr inbounds nuw i8, ptr %3, i64 16
  %24 = getelementptr inbounds nuw i8, ptr %3, i64 24
  %25 = ptrtoint ptr %2 to i64
  %26 = ptrtoint ptr %3 to i64
  %.pre = load i32, ptr %20, align 4
  br label %.outer

.outer:                                           ; preds = %.loopexit, %.lr.ph28
  %.ph = phi i32 [ %.pre33, %.loopexit ], [ %13, %.lr.ph28 ]
  %.ph38 = phi i32 [ %52, %.loopexit ], [ %.pre, %.lr.ph28 ]
  %indvars.iv30.ph = phi i64 [ %indvars.iv.next31, %.loopexit ], [ 0, %.lr.ph28 ]
  %27 = add i32 %.ph38, -1
  %28 = icmp slt i32 %27, 1
  %29 = add i32 %.ph, -1
  %30 = sext i32 %29 to i64
  br label %34

.loopexit:                                        ; preds = %.lr.ph
  %.pre33 = load i32, ptr %12, align 4
  %31 = add i32 %.pre33, -1
  %32 = sext i32 %31 to i64
  %33 = icmp sge i64 %indvars.iv.next31, %32
  %.not23 = select i1 %33, i1 true, i1 %.not
  br i1 %.not23, label %._crit_edge, label %.outer, !llvm.loop !3

.loopexit.thread:                                 ; preds = %34
  %.not41 = icmp slt i64 %indvars.iv.next31, %30
  br i1 %.not41, label %34, label %.critedge, !llvm.loop !3

34:                                               ; preds = %.outer, %.loopexit.thread
  %indvars.iv30 = phi i64 [ %indvars.iv.next31, %.loopexit.thread ], [ %indvars.iv30.ph, %.outer ]
  %35 = getelementptr inbounds nuw [0 x %struct.Point], ptr %16, i64 0, i64 %indvars.iv30
  %indvars.iv.next31 = add nuw nsw i64 %indvars.iv30, 1
  %36 = getelementptr inbounds nuw [0 x %struct.Point], ptr %16, i64 0, i64 %indvars.iv.next31
  %37 = load double, ptr %35, align 8
  store double %37, ptr %2, align 8
  %38 = getelementptr inbounds nuw i8, ptr %35, i64 8
  %39 = load double, ptr %38, align 8
  store double %39, ptr %17, align 8
  %40 = load double, ptr %36, align 8
  store double %40, ptr %18, align 8
  %41 = getelementptr inbounds nuw i8, ptr %36, i64 8
  %42 = load double, ptr %41, align 8
  store double %42, ptr %19, align 8
  br i1 %28, label %.loopexit.thread, label %.lr.ph

.lr.ph:                                           ; preds = %34, %.lr.ph
  %indvars.iv = phi i64 [ %indvars.iv.next, %.lr.ph ], [ 0, %34 ]
  %43 = getelementptr inbounds nuw [0 x %struct.Point], ptr %21, i64 0, i64 %indvars.iv
  %indvars.iv.next = add nuw nsw i64 %indvars.iv, 1
  %44 = getelementptr inbounds nuw [0 x %struct.Point], ptr %21, i64 0, i64 %indvars.iv.next
  %45 = load double, ptr %43, align 8
  store double %45, ptr %3, align 8
  %46 = getelementptr inbounds nuw i8, ptr %43, i64 8
  %47 = load double, ptr %46, align 8
  store double %47, ptr %22, align 8
  %48 = load double, ptr %44, align 8
  store double %48, ptr %23, align 8
  %49 = getelementptr inbounds nuw i8, ptr %44, i64 8
  %50 = load double, ptr %49, align 8
  store double %50, ptr %24, align 8
  %51 = call i64 @DirectFunctionCall2Coll(ptr noundef nonnull @lseg_intersect, i32 noundef 0, i64 noundef %25, i64 noundef %26) #18
  %.not = icmp ne i64 %51, 0
  %52 = load i32, ptr %20, align 4
  %53 = add i32 %52, -1
  %54 = sext i32 %53 to i64
  %55 = icmp sge i64 %indvars.iv.next, %54
  %.not24 = select i1 %55, i1 true, i1 %.not
  br i1 %.not24, label %.loopexit, label %.lr.ph, !llvm.loop !5

._crit_edge:                                      ; preds = %.loopexit
  br i1 %.not, label %57, label %.critedge

.critedge:                                        ; preds = %.loopexit.thread, %1, %._crit_edge
  %56 = getelementptr inbounds nuw i8, ptr %0, i64 28
  store i8 1, ptr %56, align 4
  br label %59

57:                                               ; preds = %._crit_edge
  %58 = call i64 @DirectFunctionCall2Coll(ptr noundef nonnull @lseg_interpt, i32 noundef 0, i64 noundef %25, i64 noundef %26) #18
  br label %59

59:                                               ; preds = %57, %.critedge
  %.022 = phi i64 [ %58, %57 ], [ 0, %.critedge ]
  call void @llvm.lifetime.end.p0(i64 32, ptr nonnull %3) #18
  call void @llvm.lifetime.end.p0(i64 32, ptr nonnull %2) #18
  ret i64 %.022
}